; ModuleID = '20/1332.c'
source_filename = "20/1332.c"
target datalayout = "e-m:e-p270:32:32-p271:32:32-p272:64:64-i64:64-f80:128-n8:16:32:64-S128"
target triple = "x86_64-pc-linux-gnu"

@.str = private unnamed_addr constant [5 x i8] c"%s%s\00", align 1
@.str.1 = private unnamed_addr constant [3 x i8] c"%c\00", align 1
@.str.2 = private unnamed_addr constant [3 x i8] c"%s\00", align 1
@.str.3 = private unnamed_addr constant [2 x i8] c"\0A\00", align 1

; Function Attrs: noinline nounwind uwtable
define dso_local void @main() #0 {
  %1 = alloca i32, align 4
  %2 = alloca i32, align 4
  %3 = alloca i32, align 4
  %4 = alloca i32, align 4
  %5 = alloca i32, align 4
  %6 = alloca i32, align 4
  %7 = alloca i32, align 4
  %8 = alloca [100 x [12 x i8]], align 16
  %9 = alloca [100 x [5 x i8]], align 16
  store i32 0, i32* %1, align 4
  store i32 0, i32* %7, align 4
  br label %10

10:                                               ; preds = %112, %0
  %11 = load i32, i32* %1, align 4
  %12 = sext i32 %11 to i64
  %13 = getelementptr inbounds [100 x [12 x i8]], [100 x [12 x i8]]* %8, i64 0, i64 %12
  %14 = load i32, i32* %1, align 4
  %15 = sext i32 %14 to i64
  %16 = getelementptr inbounds [100 x [5 x i8]], [100 x [5 x i8]]* %9, i64 0, i64 %15
  %17 = call i32 (i8*, ...) @__isoc99_scanf(i8* getelementptr inbounds ([5 x i8], [5 x i8]* @.str, i64 0, i64 0), [12 x i8]* %13, [5 x i8]* %16)
  %18 = icmp ne i32 %17, -1
  br i1 %18, label %19, label %116

19:                                               ; preds = %10
  %20 = load i32, i32* %1, align 4
  %21 = sext i32 %20 to i64
  %22 = getelementptr inbounds [100 x [12 x i8]], [100 x [12 x i8]]* %8, i64 0, i64 %21
  %23 = getelementptr inbounds [12 x i8], [12 x i8]* %22, i64 0, i64 0
  %24 = call i64 @strlen(i8* %23) #3
  %25 = trunc i64 %24 to i32
  store i32 %25, i32* %4, align 4
  store i32 0, i32* %2, align 4
  br label %26

26:                                               ; preds = %66, %19
  %27 = load i32, i32* %2, align 4
  %28 = load i32, i32* %4, align 4
  %29 = icmp slt i32 %27, %28
  br i1 %29, label %30, label %69

30:                                               ; preds = %26
  store i32 0, i32* %7, align 4
  store i32 0, i32* %3, align 4
  br label %31

31:                                               ; preds = %57, %30
  %32 = load i32, i32* %3, align 4
  %33 = load i32, i32* %4, align 4
  %34 = icmp slt i32 %32, %33
  br i1 %34, label %35, label %60

35:                                               ; preds = %31
  %36 = load i32, i32* %1, align 4
  %37 = sext i32 %36 to i64
  %38 = getelementptr inbounds [100 x [12 x i8]], [100 x [12 x i8]]* %8, i64 0, i64 %37
  %39 = load i32, i32* %2, align 4
  %40 = sext i32 %39 to i64
  %41 = getelementptr inbounds [12 x i8], [12 x i8]* %38, i64 0, i64 %40
  %42 = load i8, i8* %41, align 1
  %43 = sext i8 %42 to i32
  %44 = load i32, i32* %1, align 4
  %45 = sext i32 %44 to i64
  %46 = getelementptr inbounds [100 x [12 x i8]], [100 x [12 x i8]]* %8, i64 0, i64 %45
  %47 = load i32, i32* %3, align 4
  %48 = sext i32 %47 to i64
  %49 = getelementptr inbounds [12 x i8], [12 x i8]* %46, i64 0, i64 %48
  %50 = load i8, i8* %49, align 1
  %51 = sext i8 %50 to i32
  %52 = icmp sge i32 %43, %51
  br i1 %52, label %53, label %56

53:                                               ; preds = %35
  %54 = load i32, i32* %7, align 4
  %55 = add nsw i32 %54, 1
  store i32 %55, i32* %7, align 4
  br label %56

56:                                               ; preds = %53, %35
  br label %57

57:                                               ; preds = %56
  %58 = load i32, i32* %3, align 4
  %59 = add nsw i32 %58, 1
  store i32 %59, i32* %3, align 4
  br label %31

60:                                               ; preds = %31
  %61 = load i32, i32* %7, align 4
  %62 = load i32, i32* %4, align 4
  %63 = icmp eq i32 %61, %62
  br i1 %63, label %64, label %65

64:                                               ; preds = %60
  br label %69

65:                                               ; preds = %60
  br label %66

66:                                               ; preds = %65
  %67 = load i32, i32* %2, align 4
  %68 = add nsw i32 %67, 1
  store i32 %68, i32* %2, align 4
  br label %26

69:                                               ; preds = %64, %26
  store i32 0, i32* %6, align 4
  br label %70

70:                                               ; preds = %84, %69
  %71 = load i32, i32* %6, align 4
  %72 = load i32, i32* %2, align 4
  %73 = icmp sle i32 %71, %72
  br i1 %73, label %74, label %87

74:                                               ; preds = %70
  %75 = load i32, i32* %1, align 4
  %76 = sext i32 %75 to i64
  %77 = getelementptr inbounds [100 x [12 x i8]], [100 x [12 x i8]]* %8, i64 0, i64 %76
  %78 = load i32, i32* %6, align 4
  %79 = sext i32 %78 to i64
  %80 = getelementptr inbounds [12 x i8], [12 x i8]* %77, i64 0, i64 %79
  %81 = load i8, i8* %80, align 1
  %82 = sext i8 %81 to i32
  %83 = call i32 (i8*, ...) @printf(i8* getelementptr inbounds ([3 x i8], [3 x i8]* @.str.1, i64 0, i64 0), i32 %82)
  br label %84

84:                                               ; preds = %74
  %85 = load i32, i32* %6, align 4
  %86 = add nsw i32 %85, 1
  store i32 %86, i32* %6, align 4
  br label %70

87:                                               ; preds = %70
  %88 = load i32, i32* %1, align 4
  %89 = sext i32 %88 to i64
  %90 = getelementptr inbounds [100 x [5 x i8]], [100 x [5 x i8]]* %9, i64 0, i64 %89
  %91 = getelementptr inbounds [5 x i8], [5 x i8]* %90, i64 0, i64 0
  %92 = call i32 (i8*, ...) @printf(i8* getelementptr inbounds ([3 x i8], [3 x i8]* @.str.2, i64 0, i64 0), i8* %91)
  %93 = load i32, i32* %2, align 4
  %94 = add nsw i32 %93, 1
  store i32 %94, i32* %6, align 4
  br label %95

95:                                               ; preds = %109, %87
  %96 = load i32, i32* %6, align 4
  %97 = load i32, i32* %4, align 4
  %98 = icmp slt i32 %96, %97
  br i1 %98, label %99, label %112

99:                                               ; preds = %95
  %100 = load i32, i32* %1, align 4
  %101 = sext i32 %100 to i64
  %102 = getelementptr inbounds [100 x [12 x i8]], [100 x [12 x i8]]* %8, i64 0, i64 %101
  %103 = load i32, i32* %6, align 4
  %104 = sext i32 %103 to i64
  %105 = getelementptr inbounds [12 x i8], [12 x i8]* %102, i64 0, i64 %104
  %106 = load i8, i8* %105, align 1
  %107 = sext i8 %106 to i32
  %108 = call i32 (i8*, ...) @printf(i8* getelementptr inbounds ([3 x i8], [3 x i8]* @.str.1, i64 0, i64 0), i32 %107)
  br label %109

109:                                              ; preds = %99
  %110 = load i32, i32* %6, align 4
  %111 = add nsw i32 %110, 1
  store i32 %111, i32* %6, align 4
  br label %95

112:                                              ; preds = %95
  %113 = call i32 (i8*, ...) @printf(i8* getelementptr inbounds ([2 x i8], [2 x i8]* @.str.3, i64 0, i64 0))
  %114 = load i32, i32* %1, align 4
  %115 = add nsw i32 %114, 1
  store i32 %115, i32* %1, align 4
  br label %10

116:                                              ; preds = %10
  ret void
}

declare dso_local i32 @__isoc99_scanf(i8*, ...) #1

; Function Attrs: nounwind readonly
declare dso_local i64 @strlen(i8*) #2

declare dso_local i32 @printf(i8*, ...) #1


!llvm.module.flags = !{!0}
!llvm.ident = !{!1}

!0 = !{i32 1, !"wchar_size", i32 4}
!1 = !{!"clang version 10.0.0-4ubuntu1 "}
